; Function Attrs: mustprogress nofree norecurse nosync nounwind sspstrong willreturn memory(argmem: read) uwtable
define range(i32 0, 2) i32 @cJSON_IsObject(ptr noundef readonly %0) local_unnamed_addr #1 {
  %2 = icmp eq ptr %0, null
  br i1 %2, label %9, label %3

3:                                                ; preds = %1
  %4 = getelementptr inbounds nuw i8, ptr %0, i64 24
  %5 = load i32, ptr %4, align 8, !tbaa !11
  %6 = and i32 %5, 255
  %7 = icmp eq i32 %6, 64
  %8 = zext i1 %7 to i32
  br label %9

9:                                                ; preds = %1, %3
  %.0 = phi i32 [ %8, %3 ], [ 0, %1 ]
  ret i32 %.0
}